target datalayout = "e-m:e-p270:32:32-p271:32:32-p272:64:64-i64:64-i128:128-f80:128-n8:16:32:64-S128"
target triple = "x86_64-pc-linux-gnu"

%struct.Py_complex = type { double, double }

@sqrt_special_values = internal global [7 x [7 x %struct.Py_complex]] zeroinitializer, align 16

; Function Attrs: nounwind uwtable
define internal i32 @special_type(double noundef %0) #0 {
  %2 = alloca i32, align 4
  %3 = alloca double, align 8
  store double %0, ptr %3, align 8, !tbaa !9
  %4 = load double, ptr %3, align 8, !tbaa !9
  %5 = call i1 @llvm.is.fpclass.f64(double %4, i32 504)
  br i1 %5, label %6, label %21

6:                                                ; preds = %1
  %7 = load double, ptr %3, align 8, !tbaa !9
  %8 = fcmp une double %7, 0.000000e+00
  br i1 %8, label %9, label %15

9:                                                ; preds = %6
  %10 = load double, ptr %3, align 8, !tbaa !9
  %11 = call double @llvm.copysign.f64(double 1.000000e+00, double %10)
  %12 = fcmp oeq double %11, 1.000000e+00
  br i1 %12, label %13, label %14

13:                                               ; preds = %9
  store i32 4, ptr %2, align 4
  br label %31

14:                                               ; preds = %9
  store i32 1, ptr %2, align 4
  br label %31

15:                                               ; preds = %6
  %16 = load double, ptr %3, align 8, !tbaa !9
  %17 = call double @llvm.copysign.f64(double 1.000000e+00, double %16)
  %18 = fcmp oeq double %17, 1.000000e+00
  br i1 %18, label %19, label %20

19:                                               ; preds = %15
  store i32 3, ptr %2, align 4
  br label %31

20:                                               ; preds = %15
  store i32 2, ptr %2, align 4
  br label %31

21:                                               ; preds = %1
  %22 = load double, ptr %3, align 8, !tbaa !9
  %23 = call i1 @llvm.is.fpclass.f64(double %22, i32 3)
  br i1 %23, label %24, label %25

24:                                               ; preds = %21
  store i32 6, ptr %2, align 4
  br label %31

25:                                               ; preds = %21
  %26 = load double, ptr %3, align 8, !tbaa !9
  %27 = call double @llvm.copysign.f64(double 1.000000e+00, double %26)
  %28 = fcmp oeq double %27, 1.000000e+00
  br i1 %28, label %29, label %30

29:                                               ; preds = %25
  store i32 5, ptr %2, align 4
  br label %31

30:                                               ; preds = %25
  store i32 0, ptr %2, align 4
  br label %31

31:                                               ; preds = %30, %29, %24, %20, %19, %14, %13
  %32 = load i32, ptr %2, align 4
  ret i32 %32
}

; Function Attrs: nounwind uwtable
define internal { double, double } @cmath_sqrt_impl(ptr noundef %0, double %1, double %2) #0 {
  %4 = alloca %struct.Py_complex, align 8
  %5 = alloca %struct.Py_complex, align 8
  %6 = alloca ptr, align 8
  %7 = alloca %struct.Py_complex, align 8
  %8 = alloca double, align 8
  %9 = alloca double, align 8
  %10 = alloca double, align 8
  %11 = alloca double, align 8
  %12 = alloca i32, align 4
  %13 = getelementptr inbounds nuw { double, double }, ptr %5, i32 0, i32 0
  store double %1, ptr %13, align 8
  %14 = getelementptr inbounds nuw { double, double }, ptr %5, i32 0, i32 1
  store double %2, ptr %14, align 8
  store ptr %0, ptr %6, align 8, !tbaa !3
  call void @llvm.lifetime.start.p0(i64 16, ptr %7) #8
  call void @llvm.lifetime.start.p0(i64 8, ptr %8) #8
  call void @llvm.lifetime.start.p0(i64 8, ptr %9) #8
  call void @llvm.lifetime.start.p0(i64 8, ptr %10) #8
  call void @llvm.lifetime.start.p0(i64 8, ptr %11) #8
  %15 = getelementptr inbounds nuw %struct.Py_complex, ptr %5, i32 0, i32 0
  %16 = load double, ptr %15, align 8, !tbaa !17
  %17 = call i1 @llvm.is.fpclass.f64(double %16, i32 504)
  br i1 %17, label %18, label %22

18:                                               ; preds = %3
  %19 = getelementptr inbounds nuw %struct.Py_complex, ptr %5, i32 0, i32 1
  %20 = load double, ptr %19, align 8, !tbaa !19
  %21 = call i1 @llvm.is.fpclass.f64(double %20, i32 504)
  br i1 %21, label %34, label %22

22:                                               ; preds = %18, %3
  %23 = call ptr @__errno_location() #9
  store i32 0, ptr %23, align 4, !tbaa !11
  %24 = getelementptr inbounds nuw %struct.Py_complex, ptr %5, i32 0, i32 0
  %25 = load double, ptr %24, align 8, !tbaa !17
  %26 = call i32 @special_type(double noundef %25)
  %27 = zext i32 %26 to i64
  %28 = getelementptr [7 x [7 x %struct.Py_complex]], ptr @sqrt_special_values, i64 0, i64 %27
  %29 = getelementptr inbounds nuw %struct.Py_complex, ptr %5, i32 0, i32 1
  %30 = load double, ptr %29, align 8, !tbaa !19
  %31 = call i32 @special_type(double noundef %30)
  %32 = zext i32 %31 to i64
  %33 = getelementptr [7 x %struct.Py_complex], ptr %28, i64 0, i64 %32
  call void @llvm.memcpy.p0.p0.i64(ptr align 8 %4, ptr align 16 %33, i64 16, i1 false), !tbaa.struct !8
  store i32 1, ptr %12, align 4
  br label %107

34:                                               ; preds = %18
  %35 = getelementptr inbounds nuw %struct.Py_complex, ptr %5, i32 0, i32 0
  %36 = load double, ptr %35, align 8, !tbaa !17
  %37 = fcmp oeq double %36, 0.000000e+00
  br i1 %37, label %38, label %47

38:                                               ; preds = %34
  %39 = getelementptr inbounds nuw %struct.Py_complex, ptr %5, i32 0, i32 1
  %40 = load double, ptr %39, align 8, !tbaa !19
  %41 = fcmp oeq double %40, 0.000000e+00
  br i1 %41, label %42, label %47

42:                                               ; preds = %38
  %43 = getelementptr inbounds nuw %struct.Py_complex, ptr %7, i32 0, i32 0
  store double 0.000000e+00, ptr %43, align 8, !tbaa !17
  %44 = getelementptr inbounds nuw %struct.Py_complex, ptr %5, i32 0, i32 1
  %45 = load double, ptr %44, align 8, !tbaa !19
  %46 = getelementptr inbounds nuw %struct.Py_complex, ptr %7, i32 0, i32 1
  store double %45, ptr %46, align 8, !tbaa !19
  call void @llvm.memcpy.p0.p0.i64(ptr align 8 %4, ptr align 8 %7, i64 16, i1 false), !tbaa.struct !8
  store i32 1, ptr %12, align 4
  br label %107

47:                                               ; preds = %38, %34
  %48 = getelementptr inbounds nuw %struct.Py_complex, ptr %5, i32 0, i32 0
  %49 = load double, ptr %48, align 8, !tbaa !17
  %50 = call double @llvm.fabs.f64(double %49)
  store double %50, ptr %10, align 8, !tbaa !9
  %51 = getelementptr inbounds nuw %struct.Py_complex, ptr %5, i32 0, i32 1
  %52 = load double, ptr %51, align 8, !tbaa !19
  %53 = call double @llvm.fabs.f64(double %52)
  store double %53, ptr %11, align 8, !tbaa !9
  %54 = load double, ptr %10, align 8, !tbaa !9
  %55 = fcmp olt double %54, 0x10000000000000
  br i1 %55, label %56, label %70

56:                                               ; preds = %47
  %57 = load double, ptr %11, align 8, !tbaa !9
  %58 = fcmp olt double %57, 0x10000000000000
  br i1 %58, label %59, label %70

59:                                               ; preds = %56
  %60 = load double, ptr %10, align 8, !tbaa !9
  %61 = call double @ldexp(double noundef %60, i32 noundef 53) #8, !tbaa !11
  store double %61, ptr %10, align 8, !tbaa !9
  %62 = load double, ptr %10, align 8, !tbaa !9
  %63 = load double, ptr %10, align 8, !tbaa !9
  %64 = load double, ptr %11, align 8, !tbaa !9
  %65 = call double @ldexp(double noundef %64, i32 noundef 53) #8, !tbaa !11
  %66 = call double @hypot(double noundef %63, double noundef %65) #8, !tbaa !11
  %67 = fadd double %62, %66
  %68 = call double @sqrt(double noundef %67) #8, !tbaa !11
  %69 = call double @ldexp(double noundef %68, i32 noundef -27) #8, !tbaa !11
  store double %69, ptr %8, align 8, !tbaa !9
  br label %81

70:                                               ; preds = %56, %47
  %71 = load double, ptr %10, align 8, !tbaa !9
  %72 = fdiv double %71, 8.000000e+00
  store double %72, ptr %10, align 8, !tbaa !9
  %73 = load double, ptr %10, align 8, !tbaa !9
  %74 = load double, ptr %10, align 8, !tbaa !9
  %75 = load double, ptr %11, align 8, !tbaa !9
  %76 = fdiv double %75, 8.000000e+00
  %77 = call double @hypot(double noundef %74, double noundef %76) #8, !tbaa !11
  %78 = fadd double %73, %77
  %79 = call double @sqrt(double noundef %78) #8, !tbaa !11
  %80 = fmul double 2.000000e+00, %79
  store double %80, ptr %8, align 8, !tbaa !9
  br label %81

81:                                               ; preds = %70, %59
  %82 = load double, ptr %11, align 8, !tbaa !9
  %83 = load double, ptr %8, align 8, !tbaa !9
  %84 = fmul double 2.000000e+00, %83
  %85 = fdiv double %82, %84
  store double %85, ptr %9, align 8, !tbaa !9
  %86 = getelementptr inbounds nuw %struct.Py_complex, ptr %5, i32 0, i32 0
  %87 = load double, ptr %86, align 8, !tbaa !17
  %88 = fcmp oge double %87, 0.000000e+00
  br i1 %88, label %89, label %97

89:                                               ; preds = %81
  %90 = load double, ptr %8, align 8, !tbaa !9
  %91 = getelementptr inbounds nuw %struct.Py_complex, ptr %7, i32 0, i32 0
  store double %90, ptr %91, align 8, !tbaa !17
  %92 = load double, ptr %9, align 8, !tbaa !9
  %93 = getelementptr inbounds nuw %struct.Py_complex, ptr %5, i32 0, i32 1
  %94 = load double, ptr %93, align 8, !tbaa !19
  %95 = call double @llvm.copysign.f64(double %92, double %94)
  %96 = getelementptr inbounds nuw %struct.Py_complex, ptr %7, i32 0, i32 1
  store double %95, ptr %96, align 8, !tbaa !19
  br label %105

97:                                               ; preds = %81
  %98 = load double, ptr %9, align 8, !tbaa !9
  %99 = getelementptr inbounds nuw %struct.Py_complex, ptr %7, i32 0, i32 0
  store double %98, ptr %99, align 8, !tbaa !17
  %100 = load double, ptr %8, align 8, !tbaa !9
  %101 = getelementptr inbounds nuw %struct.Py_complex, ptr %5, i32 0, i32 1
  %102 = load double, ptr %101, align 8, !tbaa !19
  %103 = call double @llvm.copysign.f64(double %100, double %102)
  %104 = getelementptr inbounds nuw %struct.Py_complex, ptr %7, i32 0, i32 1
  store double %103, ptr %104, align 8, !tbaa !19
  br label %105

105:                                              ; preds = %97, %89
  %106 = call ptr @__errno_location() #9
  store i32 0, ptr %106, align 4, !tbaa !11
  call void @llvm.memcpy.p0.p0.i64(ptr align 8 %4, ptr align 8 %7, i64 16, i1 false), !tbaa.struct !8
  store i32 1, ptr %12, align 4
  br label %107

107:                                              ; preds = %105, %42, %22
  call void @llvm.lifetime.end.p0(i64 8, ptr %11) #8
  call void @llvm.lifetime.end.p0(i64 8, ptr %10) #8
  call void @llvm.lifetime.end.p0(i64 8, ptr %9) #8
  call void @llvm.lifetime.end.p0(i64 8, ptr %8) #8
  call void @llvm.lifetime.end.p0(i64 16, ptr %7) #8
  %108 = load { double, double }, ptr %4, align 8
  ret { double, double } %108
}