; Function Attrs: mustprogress nofree nounwind willreturn uwtable
define internal fastcc { double, double } @cmath_sqrt_impl(double %0, double %1) unnamed_addr #6 {
  %3 = tail call double @llvm.fabs.f64(double %0)
  %4 = fcmp ueq double %3, 0x7FF0000000000000
  %5 = tail call double @llvm.fabs.f64(double %1)
  %6 = fcmp ueq double %5, 0x7FF0000000000000
  %or.cond39 = select i1 %4, i1 true, i1 %6
  br i1 %or.cond39, label %7, label %32

7:                                                ; preds = %2
  %8 = tail call ptr @__errno_location() #12
  store i32 0, ptr %8, align 4, !tbaa !3
  br i1 %4, label %15, label %9

9:                                                ; preds = %7
  %10 = fcmp une double %0, 0.000000e+00
  %11 = tail call double @llvm.copysign.f64(double 1.000000e+00, double %0)
  %12 = fcmp oeq double %11, 1.000000e+00
  br i1 %10, label %13, label %14

13:                                               ; preds = %9
  %..i = select i1 %12, i64 4, i64 1
  br label %special_type.exit

14:                                               ; preds = %9
  %.7.i = select i1 %12, i64 3, i64 2
  br label %special_type.exit

15:                                               ; preds = %7
  %16 = fcmp uno double %0, 0.000000e+00
  br i1 %16, label %special_type.exit, label %17

17:                                               ; preds = %15
  %18 = tail call double @llvm.copysign.f64(double 1.000000e+00, double %0)
  %19 = fcmp oeq double %18, 1.000000e+00
  %.8.i = select i1 %19, i64 5, i64 0
  br label %special_type.exit

special_type.exit:                                ; preds = %13, %14, %15, %17
  %.0.i = phi i64 [ %..i, %13 ], [ %.7.i, %14 ], [ 6, %15 ], [ %.8.i, %17 ]
  br i1 %6, label %26, label %20

20:                                               ; preds = %special_type.exit
  %21 = fcmp une double %1, 0.000000e+00
  %22 = tail call double @llvm.copysign.f64(double 1.000000e+00, double %1)
  %23 = fcmp oeq double %22, 1.000000e+00
  br i1 %21, label %24, label %25

24:                                               ; preds = %20
  %..i42 = select i1 %23, i64 4, i64 1
  br label %special_type.exit44

25:                                               ; preds = %20
  %.7.i40 = select i1 %23, i64 3, i64 2
  br label %special_type.exit44

26:                                               ; preds = %special_type.exit
  %27 = fcmp uno double %1, 0.000000e+00
  br i1 %27, label %special_type.exit44, label %28

28:                                               ; preds = %26
  %29 = tail call double @llvm.copysign.f64(double 1.000000e+00, double %1)
  %30 = fcmp oeq double %29, 1.000000e+00
  %.8.i43 = select i1 %30, i64 5, i64 0
  br label %special_type.exit44

special_type.exit44:                              ; preds = %24, %25, %26, %28
  %.0.i41 = phi i64 [ %..i42, %24 ], [ %.7.i40, %25 ], [ 6, %26 ], [ %.8.i43, %28 ]
  %31 = getelementptr [7 x [7 x %struct.Py_complex]], ptr @sqrt_special_values, i64 0, i64 %.0.i, i64 %.0.i41
  %.sroa.034.0.copyload = load double, ptr %31, align 16, !tbaa !7
  %.sroa.4.0..sroa_idx = getelementptr inbounds nuw i8, ptr %31, i64 8
  %.sroa.4.0.copyload = load double, ptr %.sroa.4.0..sroa_idx, align 8, !tbaa !7
  br label %59

32:                                               ; preds = %2
  %33 = fcmp oeq double %0, 0.000000e+00
  %34 = fcmp oeq double %1, 0.000000e+00
  %or.cond = select i1 %33, i1 %34, i1 false
  br i1 %or.cond, label %59, label %35

35:                                               ; preds = %32
  %36 = fcmp olt double %3, 0x10000000000000
  %37 = fcmp olt double %5, 0x10000000000000
  %or.cond4 = select i1 %36, i1 %37, i1 false
  br i1 %or.cond4, label %38, label %45

38:                                               ; preds = %35
  %39 = tail call double @ldexp(double noundef %3, i32 noundef 53) #11, !tbaa !3
  %40 = tail call double @ldexp(double noundef %5, i32 noundef 53) #11, !tbaa !3
  %41 = tail call double @hypot(double noundef %39, double noundef %40) #11, !tbaa !3
  %42 = fadd double %39, %41
  %43 = tail call double @sqrt(double noundef %42) #11, !tbaa !3
  %44 = tail call double @ldexp(double noundef %43, i32 noundef -27) #11, !tbaa !3
  br label %52

45:                                               ; preds = %35
  %46 = fmul double %3, 1.250000e-01
  %47 = fmul double %5, 1.250000e-01
  %48 = tail call double @hypot(double noundef %46, double noundef %47) #11, !tbaa !3
  %49 = fadd double %46, %48
  %50 = tail call double @sqrt(double noundef %49) #11, !tbaa !3
  %51 = fmul double %50, 2.000000e+00
  br label %52

52:                                               ; preds = %45, %38
  %.0 = phi double [ %44, %38 ], [ %51, %45 ]
  %53 = fmul double %.0, 2.000000e+00
  %54 = fdiv double %5, %53
  %55 = fcmp ult double %0, 0.000000e+00
  %56 = tail call double @llvm.copysign.f64(double %54, double %1)
  %57 = tail call double @llvm.copysign.f64(double %.0, double %1)
  %.sroa.7.0 = select i1 %55, double %57, double %56
  %.sroa.0.0 = select i1 %55, double %54, double %.0
  %58 = tail call ptr @__errno_location() #12
  store i32 0, ptr %58, align 4, !tbaa !3
  br label %59

59:                                               ; preds = %32, %52, %special_type.exit44
  %.sroa.034.0 = phi double [ %.sroa.0.0, %52 ], [ %.sroa.034.0.copyload, %special_type.exit44 ], [ 0.000000e+00, %32 ]
  %.sroa.4.0 = phi double [ %.sroa.7.0, %52 ], [ %.sroa.4.0.copyload, %special_type.exit44 ], [ %1, %32 ]
  %.fca.0.insert = insertvalue { double, double } poison, double %.sroa.034.0, 0
  %.fca.1.insert = insertvalue { double, double } %.fca.0.insert, double %.sroa.4.0, 1
  ret { double, double } %.fca.1.insert
}